; Function Attrs: mustprogress nofree norecurse nosync nounwind willreturn memory(read, argmem: readwrite, inaccessiblemem: none) uwtable
define range(i32 -67308554, 8192) i32 @ff_adts_header_parse_buf(ptr noundef %0, ptr noundef writeonly captures(none) initializes((0, 24)) %1) local_unnamed_addr #0 {
  %3 = alloca %struct.GetBitContext, align 8
  call void @llvm.lifetime.start.p0(i64 32, ptr nonnull %3) #4
  %.not.i.i = icmp eq ptr %0, null
  %.018.i.i = select i1 %.not.i.i, i32 0, i32 56
  %4 = lshr exact i32 %.018.i.i, 3
  store ptr %0, ptr %3, align 8, !tbaa !12
  %5 = getelementptr inbounds nuw i8, ptr %3, i64 20
  store i32 %.018.i.i, ptr %5, align 4, !tbaa !25
  %6 = add nuw nsw i32 %.018.i.i, 8
  %7 = getelementptr inbounds nuw i8, ptr %3, i64 24
  store i32 %6, ptr %7, align 8, !tbaa !11
  %8 = zext nneg i32 %4 to i64
  %9 = getelementptr inbounds nuw i8, ptr %0, i64 %8
  %10 = getelementptr inbounds nuw i8, ptr %3, i64 8
  store ptr %9, ptr %10, align 8, !tbaa !26
  %11 = getelementptr inbounds nuw i8, ptr %3, i64 16
  store i32 0, ptr %11, align 8, !tbaa !4
  %12 = call i32 @ff_adts_header_parse(ptr noundef nonnull %3, ptr noundef %1)
  call void @llvm.lifetime.end.p0(i64 32, ptr nonnull %3) #4
  ret i32 %12
}